target datalayout = "e-m:e-p270:32:32-p271:32:32-p272:64:64-i64:64-i128:128-f80:128-n8:16:32:64-S128"
target triple = "x86_64-pc-linux-gnu"

%struct._lv_lru_t = type { ptr, i64, i64, i64, i64, i64, i32, ptr, ptr, ptr }
%struct._lv_lru_item_t = type { ptr, ptr, i64, i64, i64, ptr }

; Function Attrs: nounwind uwtable
define void @lv_lru_delete(ptr noundef %0) #0 {
  %2 = alloca ptr, align 8
  %3 = alloca ptr, align 8
  %4 = alloca ptr, align 8
  %5 = alloca i32, align 4
  store ptr %0, ptr %2, align 8, !tbaa !7
  br label %6

6:                                                ; preds = %1
  %7 = load ptr, ptr %2, align 8, !tbaa !7
  %8 = icmp ne ptr %7, null
  br i1 %8, label %13, label %9

9:                                                ; preds = %6
  br label %10

10:                                               ; preds = %9
  br label %11

11:                                               ; preds = %10
  br label %12

12:                                               ; preds = %11, %12
  br label %12

13:                                               ; preds = %6
  br label %14

14:                                               ; preds = %13
  call void @llvm.lifetime.start.p0(i64 8, ptr %3) #4
  store ptr null, ptr %3, align 8, !tbaa !7
  call void @llvm.lifetime.start.p0(i64 8, ptr %4) #4
  store ptr null, ptr %4, align 8, !tbaa !7
  call void @llvm.lifetime.start.p0(i64 4, ptr %5) #4
  store i32 0, ptr %5, align 4, !tbaa !19
  %15 = load ptr, ptr %2, align 8, !tbaa !7
  %16 = getelementptr inbounds nuw %struct._lv_lru_t, ptr %15, i32 0, i32 0
  %17 = load ptr, ptr %16, align 8, !tbaa !18
  %18 = icmp ne ptr %17, null
  br i1 %18, label %19, label %71

19:                                               ; preds = %14
  br label %20

20:                                               ; preds = %64, %19
  %21 = load i32, ptr %5, align 4, !tbaa !19
  %22 = zext i32 %21 to i64
  %23 = load ptr, ptr %2, align 8, !tbaa !7
  %24 = getelementptr inbounds nuw %struct._lv_lru_t, ptr %23, i32 0, i32 5
  %25 = load i64, ptr %24, align 8, !tbaa !9
  %26 = icmp ult i64 %22, %25
  br i1 %26, label %27, label %67

27:                                               ; preds = %20
  %28 = load ptr, ptr %2, align 8, !tbaa !7
  %29 = getelementptr inbounds nuw %struct._lv_lru_t, ptr %28, i32 0, i32 0
  %30 = load ptr, ptr %29, align 8, !tbaa !18
  %31 = load i32, ptr %5, align 4, !tbaa !19
  %32 = zext i32 %31 to i64
  %33 = getelementptr inbounds nuw ptr, ptr %30, i64 %32
  %34 = load ptr, ptr %33, align 8, !tbaa !7
  store ptr %34, ptr %3, align 8, !tbaa !7
  br label %35

35:                                               ; preds = %38, %27
  %36 = load ptr, ptr %3, align 8, !tbaa !7
  %37 = icmp ne ptr %36, null
  br i1 %37, label %38, label %63

38:                                               ; preds = %35
  %39 = load ptr, ptr %3, align 8, !tbaa !7
  %40 = getelementptr inbounds nuw %struct._lv_lru_item_t, ptr %39, i32 0, i32 5
  %41 = load ptr, ptr %40, align 8, !tbaa !20
  store ptr %41, ptr %4, align 8, !tbaa !7
  %42 = load ptr, ptr %2, align 8, !tbaa !7
  %43 = getelementptr inbounds nuw %struct._lv_lru_t, ptr %42, i32 0, i32 7
  %44 = load ptr, ptr %43, align 8, !tbaa !16
  %45 = load ptr, ptr %3, align 8, !tbaa !7
  %46 = getelementptr inbounds nuw %struct._lv_lru_item_t, ptr %45, i32 0, i32 0
  %47 = load ptr, ptr %46, align 8, !tbaa !22
  call void %44(ptr noundef %47)
  %48 = load ptr, ptr %2, align 8, !tbaa !7
  %49 = getelementptr inbounds nuw %struct._lv_lru_t, ptr %48, i32 0, i32 8
  %50 = load ptr, ptr %49, align 8, !tbaa !17
  %51 = load ptr, ptr %3, align 8, !tbaa !7
  %52 = getelementptr inbounds nuw %struct._lv_lru_item_t, ptr %51, i32 0, i32 1
  %53 = load ptr, ptr %52, align 8, !tbaa !23
  call void %50(ptr noundef %53)
  %54 = load ptr, ptr %3, align 8, !tbaa !7
  %55 = getelementptr inbounds nuw %struct._lv_lru_item_t, ptr %54, i32 0, i32 2
  %56 = load i64, ptr %55, align 8, !tbaa !24
  %57 = load ptr, ptr %2, align 8, !tbaa !7
  %58 = getelementptr inbounds nuw %struct._lv_lru_t, ptr %57, i32 0, i32 2
  %59 = load i64, ptr %58, align 8, !tbaa !13
  %60 = add i64 %59, %56
  store i64 %60, ptr %58, align 8, !tbaa !13
  %61 = load ptr, ptr %3, align 8, !tbaa !7
  call void @lv_free(ptr noundef %61)
  %62 = load ptr, ptr %4, align 8, !tbaa !7
  store ptr %62, ptr %3, align 8, !tbaa !7
  br label %35, !llvm.loop !25

63:                                               ; preds = %35
  br label %64

64:                                               ; preds = %63
  %65 = load i32, ptr %5, align 4, !tbaa !19
  %66 = add i32 %65, 1
  store i32 %66, ptr %5, align 4, !tbaa !19
  br label %20, !llvm.loop !27

67:                                               ; preds = %20
  %68 = load ptr, ptr %2, align 8, !tbaa !7
  %69 = getelementptr inbounds nuw %struct._lv_lru_t, ptr %68, i32 0, i32 0
  %70 = load ptr, ptr %69, align 8, !tbaa !18
  call void @lv_free(ptr noundef %70)
  br label %71

71:                                               ; preds = %67, %14
  %72 = load ptr, ptr %2, align 8, !tbaa !7
  %73 = getelementptr inbounds nuw %struct._lv_lru_t, ptr %72, i32 0, i32 9
  %74 = load ptr, ptr %73, align 8, !tbaa !28
  %75 = icmp ne ptr %74, null
  br i1 %75, label %76, label %90

76:                                               ; preds = %71
  %77 = load ptr, ptr %2, align 8, !tbaa !7
  %78 = getelementptr inbounds nuw %struct._lv_lru_t, ptr %77, i32 0, i32 9
  %79 = load ptr, ptr %78, align 8, !tbaa !28
  store ptr %79, ptr %3, align 8, !tbaa !7
  br label %80

80:                                               ; preds = %83, %76
  %81 = load ptr, ptr %3, align 8, !tbaa !7
  %82 = icmp ne ptr %81, null
  br i1 %82, label %83, label %89

83:                                               ; preds = %80
  %84 = load ptr, ptr %3, align 8, !tbaa !7
  %85 = getelementptr inbounds nuw %struct._lv_lru_item_t, ptr %84, i32 0, i32 5
  %86 = load ptr, ptr %85, align 8, !tbaa !20
  store ptr %86, ptr %4, align 8, !tbaa !7
  %87 = load ptr, ptr %3, align 8, !tbaa !7
  call void @lv_free(ptr noundef %87)
  %88 = load ptr, ptr %4, align 8, !tbaa !7
  store ptr %88, ptr %3, align 8, !tbaa !7
  br label %80, !llvm.loop !29

89:                                               ; preds = %80
  br label %90

90:                                               ; preds = %89, %71
  %91 = load ptr, ptr %2, align 8, !tbaa !7
  call void @lv_free(ptr noundef %91)
  call void @llvm.lifetime.end.p0(i64 4, ptr %5) #4
  call void @llvm.lifetime.end.p0(i64 8, ptr %4) #4
  call void @llvm.lifetime.end.p0(i64 8, ptr %3) #4
  ret void
}