; Function Attrs: nounwind uwtable
define void @lv_lru_delete(ptr noundef %0) local_unnamed_addr #0 {
  %.not = icmp eq ptr %0, null
  br i1 %.not, label %.preheader, label %2

.preheader:                                       ; preds = %1, %.preheader
  br label %.preheader

2:                                                ; preds = %1
  %3 = load ptr, ptr %0, align 8, !tbaa !16
  %.not28 = icmp eq ptr %3, null
  br i1 %.not28, label %31, label %.preheader33

.preheader33:                                     ; preds = %2
  %4 = getelementptr inbounds nuw i8, ptr %0, i64 40
  %5 = load i64, ptr %4, align 8, !tbaa !3
  %.not40 = icmp eq i64 %5, 0
  br i1 %.not40, label %._crit_edge38, label %.lr.ph37

.lr.ph37:                                         ; preds = %.preheader33
  %6 = getelementptr inbounds nuw i8, ptr %0, i64 56
  %7 = getelementptr inbounds nuw i8, ptr %0, i64 64
  %8 = getelementptr inbounds nuw i8, ptr %0, i64 16
  br label %9

9:                                                ; preds = %.lr.ph37, %._crit_edge
  %10 = phi i64 [ %5, %.lr.ph37 ], [ %26, %._crit_edge ]
  %11 = phi i64 [ 0, %.lr.ph37 ], [ %28, %._crit_edge ]
  %.036 = phi i32 [ 0, %.lr.ph37 ], [ %27, %._crit_edge ]
  %12 = load ptr, ptr %0, align 8, !tbaa !16
  %13 = getelementptr inbounds nuw ptr, ptr %12, i64 %11
  %14 = load ptr, ptr %13, align 8, !tbaa !17
  %.not3134 = icmp eq ptr %14, null
  br i1 %.not3134, label %._crit_edge, label %.lr.ph

.lr.ph:                                           ; preds = %9, %.lr.ph
  %.02435 = phi ptr [ %16, %.lr.ph ], [ %14, %9 ]
  %15 = getelementptr inbounds nuw i8, ptr %.02435, i64 40
  %16 = load ptr, ptr %15, align 8, !tbaa !18
  %17 = load ptr, ptr %6, align 8, !tbaa !14
  %18 = load ptr, ptr %.02435, align 8, !tbaa !20
  tail call void %17(ptr noundef %18) #2
  %19 = load ptr, ptr %7, align 8, !tbaa !15
  %20 = getelementptr inbounds nuw i8, ptr %.02435, i64 8
  %21 = load ptr, ptr %20, align 8, !tbaa !21
  tail call void %19(ptr noundef %21) #2
  %22 = getelementptr inbounds nuw i8, ptr %.02435, i64 16
  %23 = load i64, ptr %22, align 8, !tbaa !22
  %24 = load i64, ptr %8, align 8, !tbaa !11
  %25 = add i64 %24, %23
  store i64 %25, ptr %8, align 8, !tbaa !11
  tail call void @lv_free(ptr noundef nonnull %.02435) #2
  %.not31 = icmp eq ptr %16, null
  br i1 %.not31, label %._crit_edge.loopexit, label %.lr.ph, !llvm.loop !23

._crit_edge.loopexit:                             ; preds = %.lr.ph
  %.pre = load i64, ptr %4, align 8, !tbaa !3
  br label %._crit_edge

._crit_edge:                                      ; preds = %._crit_edge.loopexit, %9
  %26 = phi i64 [ %.pre, %._crit_edge.loopexit ], [ %10, %9 ]
  %27 = add i32 %.036, 1
  %28 = zext i32 %27 to i64
  %29 = icmp ugt i64 %26, %28
  br i1 %29, label %9, label %._crit_edge38.loopexit, !llvm.loop !25

._crit_edge38.loopexit:                           ; preds = %._crit_edge
  %.pre41 = load ptr, ptr %0, align 8, !tbaa !16
  br label %._crit_edge38

._crit_edge38:                                    ; preds = %._crit_edge38.loopexit, %.preheader33
  %30 = phi ptr [ %.pre41, %._crit_edge38.loopexit ], [ %3, %.preheader33 ]
  tail call void @lv_free(ptr noundef %30) #2
  br label %31

31:                                               ; preds = %._crit_edge38, %2
  %32 = getelementptr inbounds nuw i8, ptr %0, i64 72
  %33 = load ptr, ptr %32, align 8, !tbaa !26
  %.not29 = icmp eq ptr %33, null
  br i1 %.not29, label %.loopexit, label %.preheader32

.preheader32:                                     ; preds = %31, %.preheader32
  %.139 = phi ptr [ %35, %.preheader32 ], [ %33, %31 ]
  %34 = getelementptr inbounds nuw i8, ptr %.139, i64 40
  %35 = load ptr, ptr %34, align 8, !tbaa !18
  tail call void @lv_free(ptr noundef nonnull %.139) #2
  %.not30 = icmp eq ptr %35, null
  br i1 %.not30, label %.loopexit, label %.preheader32, !llvm.loop !27

.loopexit:                                        ; preds = %.preheader32, %31
  tail call void @lv_free(ptr noundef nonnull %0) #2
  ret void
}